target datalayout = "e-m:e-p270:32:32-p271:32:32-p272:64:64-i64:64-i128:128-f80:128-n8:16:32:64-S128"
target triple = "x86_64-pc-linux-gnu"

; Function Attrs: nounwind sspstrong uwtable
define internal ptr @iso2022jp_put_state(ptr noundef %0, ptr noundef %1, i32 noundef %2, i32 noundef %3) #0 {
  %5 = alloca ptr, align 8
  %6 = alloca ptr, align 8
  %7 = alloca i32, align 4
  %8 = alloca i32, align 4
  store ptr %0, ptr %5, align 8, !tbaa !10
  store ptr %1, ptr %6, align 8, !tbaa !10
  store i32 %2, ptr %7, align 4, !tbaa !15
  store i32 %3, ptr %8, align 4, !tbaa !15
  %9 = load i32, ptr %7, align 4, !tbaa !15
  %10 = load i32, ptr %8, align 4, !tbaa !15
  %11 = icmp ne i32 %9, %10
  br i1 %11, label %12, label %40

12:                                               ; preds = %4
  %13 = load ptr, ptr %6, align 8, !tbaa !10
  %14 = getelementptr inbounds nuw i8, ptr %13, i32 1
  store ptr %14, ptr %6, align 8, !tbaa !10
  store i8 27, ptr %13, align 1, !tbaa !12
  %15 = load i32, ptr %8, align 4, !tbaa !15
  switch i32 %15, label %31 [
    i32 0, label %16
    i32 3, label %21
    i32 1, label %26
  ]

16:                                               ; preds = %12
  %17 = load ptr, ptr %6, align 8, !tbaa !10
  %18 = getelementptr inbounds nuw i8, ptr %17, i32 1
  store ptr %18, ptr %6, align 8, !tbaa !10
  store i8 40, ptr %17, align 1, !tbaa !12
  %19 = load ptr, ptr %6, align 8, !tbaa !10
  %20 = getelementptr inbounds nuw i8, ptr %19, i32 1
  store ptr %20, ptr %6, align 8, !tbaa !10
  store i8 66, ptr %19, align 1, !tbaa !12
  br label %36

21:                                               ; preds = %12
  %22 = load ptr, ptr %6, align 8, !tbaa !10
  %23 = getelementptr inbounds nuw i8, ptr %22, i32 1
  store ptr %23, ptr %6, align 8, !tbaa !10
  store i8 40, ptr %22, align 1, !tbaa !12
  %24 = load ptr, ptr %6, align 8, !tbaa !10
  %25 = getelementptr inbounds nuw i8, ptr %24, i32 1
  store ptr %25, ptr %6, align 8, !tbaa !10
  store i8 73, ptr %24, align 1, !tbaa !12
  br label %36

26:                                               ; preds = %12
  %27 = load ptr, ptr %6, align 8, !tbaa !10
  %28 = getelementptr inbounds nuw i8, ptr %27, i32 1
  store ptr %28, ptr %6, align 8, !tbaa !10
  store i8 36, ptr %27, align 1, !tbaa !12
  %29 = load ptr, ptr %6, align 8, !tbaa !10
  %30 = getelementptr inbounds nuw i8, ptr %29, i32 1
  store ptr %30, ptr %6, align 8, !tbaa !10
  store i8 64, ptr %29, align 1, !tbaa !12
  br label %36

31:                                               ; preds = %12
  %32 = load ptr, ptr %6, align 8, !tbaa !10
  %33 = getelementptr inbounds nuw i8, ptr %32, i32 1
  store ptr %33, ptr %6, align 8, !tbaa !10
  store i8 36, ptr %32, align 1, !tbaa !12
  %34 = load ptr, ptr %6, align 8, !tbaa !10
  %35 = getelementptr inbounds nuw i8, ptr %34, i32 1
  store ptr %35, ptr %6, align 8, !tbaa !10
  store i8 66, ptr %34, align 1, !tbaa !12
  br label %36

36:                                               ; preds = %31, %26, %21, %16
  %37 = load i32, ptr %8, align 4, !tbaa !15
  %38 = trunc i32 %37 to i8
  %39 = load ptr, ptr %5, align 8, !tbaa !10
  store i8 %38, ptr %39, align 1, !tbaa !12
  br label %40

40:                                               ; preds = %36, %4
  %41 = load ptr, ptr %6, align 8, !tbaa !10
  ret ptr %41
}

; Function Attrs: nounwind sspstrong uwtable
define internal i64 @finish_cp50220_encoder(ptr noundef %0, ptr noundef %1, i64 noundef %2) #0 {
  %4 = alloca i64, align 8
  %5 = alloca ptr, align 8
  %6 = alloca ptr, align 8
  %7 = alloca i64, align 8
  %8 = alloca ptr, align 8
  %9 = alloca ptr, align 8
  %10 = alloca i32, align 4
  %11 = alloca i32, align 4
  %12 = alloca ptr, align 8
  store ptr %0, ptr %5, align 8, !tbaa !6
  store ptr %1, ptr %6, align 8, !tbaa !10
  store i64 %2, ptr %7, align 8, !tbaa !13
  call void @llvm.lifetime.start.p0(i64 8, ptr %8) #3
  %13 = load ptr, ptr %5, align 8, !tbaa !6
  store ptr %13, ptr %8, align 8, !tbaa !10
  call void @llvm.lifetime.start.p0(i64 8, ptr %9) #3
  %14 = load ptr, ptr %6, align 8, !tbaa !10
  store ptr %14, ptr %9, align 8, !tbaa !10
  %15 = load ptr, ptr %8, align 8, !tbaa !10
  %16 = load i8, ptr %15, align 1, !tbaa !12
  %17 = zext i8 %16 to i32
  %18 = icmp eq i32 %17, 0
  br i1 %18, label %19, label %20

19:                                               ; preds = %3
  store i64 0, ptr %4, align 8
  store i32 1, ptr %10, align 4
  br label %74

20:                                               ; preds = %3
  %21 = load ptr, ptr %8, align 8, !tbaa !10
  %22 = getelementptr inbounds i8, ptr %21, i64 0
  %23 = load i8, ptr %22, align 1, !tbaa !12
  %24 = zext i8 %23 to i32
  %25 = icmp eq i32 %24, 3
  br i1 %25, label %26, label %61

26:                                               ; preds = %20
  %27 = load ptr, ptr %8, align 8, !tbaa !10
  %28 = getelementptr inbounds i8, ptr %27, i64 2
  %29 = load i8, ptr %28, align 1, !tbaa !12
  %30 = zext i8 %29 to i32
  %31 = icmp ne i32 %30, 0
  br i1 %31, label %32, label %61

32:                                               ; preds = %26
  call void @llvm.lifetime.start.p0(i64 4, ptr %11) #3
  %33 = load ptr, ptr %8, align 8, !tbaa !10
  %34 = getelementptr inbounds i8, ptr %33, i64 2
  %35 = load i8, ptr %34, align 1, !tbaa !12
  %36 = zext i8 %35 to i32
  %37 = and i32 %36, 127
  store i32 %37, ptr %11, align 4, !tbaa !15
  call void @llvm.lifetime.start.p0(i64 8, ptr %12) #3
  %38 = load i32, ptr %11, align 4, !tbaa !15
  %39 = sub nsw i32 %38, 33
  %40 = sext i32 %39 to i64
  %41 = getelementptr inbounds [63 x [2 x i8]], ptr @tbl0208, i64 0, i64 %40
  %42 = getelementptr inbounds [2 x i8], ptr %41, i64 0, i64 0
  store ptr %42, ptr %12, align 8, !tbaa !10
  %43 = load ptr, ptr %8, align 8, !tbaa !10
  %44 = load ptr, ptr %6, align 8, !tbaa !10
  %45 = load ptr, ptr %8, align 8, !tbaa !10
  %46 = getelementptr inbounds i8, ptr %45, i64 1
  %47 = load i8, ptr %46, align 1, !tbaa !12
  %48 = zext i8 %47 to i32
  %49 = call ptr @iso2022jp_put_state(ptr noundef %43, ptr noundef %44, i32 noundef %48, i32 noundef 2)
  store ptr %49, ptr %6, align 8, !tbaa !10
  %50 = load ptr, ptr %8, align 8, !tbaa !10
  %51 = getelementptr inbounds i8, ptr %50, i64 0
  store i8 2, ptr %51, align 1, !tbaa !12
  %52 = load ptr, ptr %12, align 8, !tbaa !10
  %53 = getelementptr inbounds nuw i8, ptr %52, i32 1
  store ptr %53, ptr %12, align 8, !tbaa !10
  %54 = load i8, ptr %52, align 1, !tbaa !12
  %55 = load ptr, ptr %6, align 8, !tbaa !10
  %56 = getelementptr inbounds nuw i8, ptr %55, i32 1
  store ptr %56, ptr %6, align 8, !tbaa !10
  store i8 %54, ptr %55, align 1, !tbaa !12
  %57 = load ptr, ptr %12, align 8, !tbaa !10
  %58 = load i8, ptr %57, align 1, !tbaa !12
  %59 = load ptr, ptr %6, align 8, !tbaa !10
  %60 = getelementptr inbounds nuw i8, ptr %59, i32 1
  store ptr %60, ptr %6, align 8, !tbaa !10
  store i8 %58, ptr %59, align 1, !tbaa !12
  call void @llvm.lifetime.end.p0(i64 8, ptr %12) #3
  call void @llvm.lifetime.end.p0(i64 4, ptr %11) #3
  br label %61

61:                                               ; preds = %32, %26, %20
  %62 = load ptr, ptr %8, align 8, !tbaa !10
  %63 = load ptr, ptr %6, align 8, !tbaa !10
  %64 = load ptr, ptr %8, align 8, !tbaa !10
  %65 = getelementptr inbounds i8, ptr %64, i64 0
  %66 = load i8, ptr %65, align 1, !tbaa !12
  %67 = zext i8 %66 to i32
  %68 = call ptr @iso2022jp_put_state(ptr noundef %62, ptr noundef %63, i32 noundef %67, i32 noundef 0)
  store ptr %68, ptr %6, align 8, !tbaa !10
  %69 = load ptr, ptr %6, align 8, !tbaa !10
  %70 = load ptr, ptr %9, align 8, !tbaa !10
  %71 = ptrtoint ptr %69 to i64
  %72 = ptrtoint ptr %70 to i64
  %73 = sub i64 %71, %72
  store i64 %73, ptr %4, align 8
  store i32 1, ptr %10, align 4
  br label %74

74:                                               ; preds = %61, %19
  call void @llvm.lifetime.end.p0(i64 8, ptr %9) #3
  call void @llvm.lifetime.end.p0(i64 8, ptr %8) #3
  %75 = load i64, ptr %4, align 8
  ret i64 %75
}