; Function Attrs: mustprogress nofree norecurse nosync nounwind sspstrong willreturn memory(argmem: readwrite) uwtable
define internal i64 @finish_cp50220_encoder(ptr noundef captures(none) %0, ptr noundef %1, i64 %2) #4 {
  %4 = load i8, ptr %0, align 1, !tbaa !6
  switch i8 %4, label %23 [
    i8 0, label %30
    i8 3, label %5
  ]

5:                                                ; preds = %3
  %6 = getelementptr inbounds nuw i8, ptr %0, i64 2
  %7 = load i8, ptr %6, align 1, !tbaa !6
  %.not = icmp eq i8 %7, 0
  br i1 %.not, label %.thread, label %8

8:                                                ; preds = %5
  %9 = and i8 %7, 127
  %10 = zext nneg i8 %9 to i64
  %11 = add nsw i64 %10, -33
  %12 = getelementptr inbounds [63 x [2 x i8]], ptr @tbl0208, i64 0, i64 %11
  %13 = getelementptr inbounds nuw i8, ptr %0, i64 1
  %14 = load i8, ptr %13, align 1, !tbaa !6
  %.not.i = icmp eq i8 %14, 2
  br i1 %.not.i, label %iso2022jp_put_state.exit, label %15

15:                                               ; preds = %8
  %16 = getelementptr inbounds nuw i8, ptr %1, i64 1
  store i8 27, ptr %1, align 1, !tbaa !6
  %17 = getelementptr inbounds nuw i8, ptr %1, i64 2
  store i8 36, ptr %16, align 1, !tbaa !6
  store i8 66, ptr %17, align 1, !tbaa !6
  %.1.i = getelementptr inbounds nuw i8, ptr %1, i64 3
  br label %iso2022jp_put_state.exit

iso2022jp_put_state.exit:                         ; preds = %8, %15
  %.0.i = phi ptr [ %.1.i, %15 ], [ %1, %8 ]
  store i8 2, ptr %0, align 1, !tbaa !6
  %18 = getelementptr inbounds nuw i8, ptr %12, i64 1
  %19 = load i8, ptr %12, align 2, !tbaa !6
  %20 = getelementptr inbounds nuw i8, ptr %.0.i, i64 1
  store i8 %19, ptr %.0.i, align 1, !tbaa !6
  %21 = load i8, ptr %18, align 1, !tbaa !6
  %22 = getelementptr inbounds nuw i8, ptr %.0.i, i64 2
  store i8 %21, ptr %20, align 1, !tbaa !6
  %.pre = load i8, ptr %0, align 1, !tbaa !6
  br label %23

23:                                               ; preds = %3, %iso2022jp_put_state.exit
  %24 = phi i8 [ %.pre, %iso2022jp_put_state.exit ], [ %4, %3 ]
  %.020 = phi ptr [ %22, %iso2022jp_put_state.exit ], [ %1, %3 ]
  %.not.i23 = icmp eq i8 %24, 0
  br i1 %.not.i23, label %iso2022jp_put_state.exit26, label %.thread

.thread:                                          ; preds = %5, %23
  %.02029 = phi ptr [ %.020, %23 ], [ %1, %5 ]
  %25 = getelementptr inbounds nuw i8, ptr %.02029, i64 1
  store i8 27, ptr %.02029, align 1, !tbaa !6
  %26 = getelementptr inbounds nuw i8, ptr %.02029, i64 2
  store i8 40, ptr %25, align 1, !tbaa !6
  store i8 66, ptr %26, align 1, !tbaa !6
  %.1.i24 = getelementptr inbounds nuw i8, ptr %.02029, i64 3
  store i8 0, ptr %0, align 1, !tbaa !6
  br label %iso2022jp_put_state.exit26

iso2022jp_put_state.exit26:                       ; preds = %23, %.thread
  %.0.i25 = phi ptr [ %.1.i24, %.thread ], [ %.020, %23 ]
  %27 = ptrtoint ptr %.0.i25 to i64
  %28 = ptrtoint ptr %1 to i64
  %29 = sub i64 %27, %28
  br label %30

30:                                               ; preds = %3, %iso2022jp_put_state.exit26
  %.0 = phi i64 [ %29, %iso2022jp_put_state.exit26 ], [ 0, %3 ]
  ret i64 %.0
}